; Function Attrs: nounwind uwtable
define ptr @l_List_foldl___at_Lean_Meta_RecursorInfo_instToString___spec__8___boxed(ptr noundef %0, ptr noundef %1) local_unnamed_addr #0 {
  br label %3

3:                                                ; preds = %13, %2
  %.015.i = phi ptr [ %1, %2 ], [ %17, %13 ]
  %.0.i = phi ptr [ %0, %2 ], [ %24, %13 ]
  %4 = ptrtoint ptr %.015.i to i64
  %5 = and i64 %4, 1
  %.not.i.i = icmp eq i64 %5, 0
  br i1 %.not.i.i, label %9, label %6

6:                                                ; preds = %3
  %7 = lshr i64 %4, 1
  %8 = trunc i64 %7 to i32
  br label %lean_obj_tag.exit.i

9:                                                ; preds = %3
  %10 = getelementptr i8, ptr %.015.i, i64 4
  %.val.i.i = load i32, ptr %10, align 4
  %11 = lshr i32 %.val.i.i, 24
  br label %lean_obj_tag.exit.i

lean_obj_tag.exit.i:                              ; preds = %9, %6
  %.0.i.i = phi i32 [ %8, %6 ], [ %11, %9 ]
  %12 = icmp eq i32 %.0.i.i, 0
  br i1 %12, label %l_List_foldl___at_Lean_Meta_RecursorInfo_instToString___spec__8.exit, label %13

13:                                               ; preds = %lean_obj_tag.exit.i
  %14 = getelementptr inbounds nuw i8, ptr %.015.i, i64 8
  %15 = load ptr, ptr %14, align 8, !tbaa !4
  %16 = getelementptr inbounds nuw i8, ptr %.015.i, i64 16
  %17 = load ptr, ptr %16, align 8, !tbaa !4
  %18 = load ptr, ptr @l_List_foldl___at_Lean_Meta_RecursorInfo_instToString___spec__2___closed__1, align 8, !tbaa !4
  %19 = tail call ptr @lean_string_append(ptr noundef %.0.i, ptr noundef %18) #6
  %20 = ptrtoint ptr %15 to i64
  %21 = and i64 %20, 510
  %22 = icmp eq i64 %21, 0
  %l_List_foldl___at_Lean_Meta_RecursorInfo_instToString___spec__8___closed__1.val.i = load ptr, ptr @l_List_foldl___at_Lean_Meta_RecursorInfo_instToString___spec__8___closed__1, align 8
  %l_List_foldl___at_Lean_Meta_RecursorInfo_instToString___spec__8___closed__2.val.i = load ptr, ptr @l_List_foldl___at_Lean_Meta_RecursorInfo_instToString___spec__8___closed__2, align 8
  %23 = select i1 %22, ptr %l_List_foldl___at_Lean_Meta_RecursorInfo_instToString___spec__8___closed__1.val.i, ptr %l_List_foldl___at_Lean_Meta_RecursorInfo_instToString___spec__8___closed__2.val.i
  %24 = tail call ptr @lean_string_append(ptr noundef %19, ptr noundef %23) #6
  br label %3

l_List_foldl___at_Lean_Meta_RecursorInfo_instToString___spec__8.exit: ; preds = %lean_obj_tag.exit.i
  %25 = ptrtoint ptr %1 to i64
  %26 = and i64 %25, 1
  %.not = icmp eq i64 %26, 0
  br i1 %.not, label %27, label %lean_dec.exit

27:                                               ; preds = %l_List_foldl___at_Lean_Meta_RecursorInfo_instToString___spec__8.exit
  %28 = load i32, ptr %1, align 4, !tbaa !8
  %29 = icmp sgt i32 %28, 1
  br i1 %29, label %30, label %32, !prof !11

30:                                               ; preds = %27
  %31 = add nsw i32 %28, -1
  store i32 %31, ptr %1, align 4, !tbaa !8
  br label %lean_dec.exit

32:                                               ; preds = %27
  %.not.i = icmp eq i32 %28, 0
  br i1 %.not.i, label %lean_dec.exit, label %33

33:                                               ; preds = %32
  tail call void @lean_dec_ref_cold(ptr noundef nonnull %1) #6
  br label %lean_dec.exit

lean_dec.exit:                                    ; preds = %33, %32, %30, %l_List_foldl___at_Lean_Meta_RecursorInfo_instToString___spec__8.exit
  ret ptr %.0.i
}